target datalayout = "e-m:e-p270:32:32-p271:32:32-p272:64:64-i64:64-i128:128-f80:128-n8:16:32:64-S128"
target triple = "x86_64-pc-linux-gnu"

%"class.zmq::thread_t" = type { ptr, ptr, [16 x i8], i8, i64, i32, i32, %"class.std::set" }
%"class.std::set" = type { %"class.std::_Rb_tree" }
%"class.std::_Rb_tree" = type { %"struct.std::_Rb_tree<int, int, std::_Identity<int>, std::less<int>>::_Rb_tree_impl" }
%"struct.std::_Rb_tree<int, int, std::_Identity<int>, std::less<int>>::_Rb_tree_impl" = type { [8 x i8], %"struct.std::_Rb_tree_header" }
%"struct.std::_Rb_tree_header" = type { %"struct.std::_Rb_tree_node_base", i64 }
%"struct.std::_Rb_tree_node_base" = type { i32, ptr, ptr, ptr }

@stderr = external global ptr, align 8
@.str = private unnamed_addr constant [12 x i8] c"%s (%s:%d)\0A\00", align 1
@.str.1 = private unnamed_addr constant [106 x i8] c"generated/home/dtcxzyw/WorkSpace/Projects/compilers/llvm-opt-benchmark/bench/libzmq/libzmq/src/thread.cpp\00", align 1

; Function Attrs: mustprogress uwtable
define void @_ZN3zmq8thread_t4stopEv(ptr noundef nonnull align 8 dereferenceable(104) %0) #1 align 2 {
  %2 = alloca ptr, align 8
  %3 = alloca i32, align 4
  %4 = alloca ptr, align 8
  store ptr %0, ptr %2, align 8, !tbaa !3
  %5 = load ptr, ptr %2, align 8
  %6 = getelementptr inbounds nuw %"class.zmq::thread_t", ptr %5, i32 0, i32 3
  %7 = load i8, ptr %6, align 8, !tbaa !8, !range !22, !noundef !23
  %8 = trunc i8 %7 to i1
  br i1 %8, label %9, label %30

9:                                                ; preds = %1
  call void @llvm.lifetime.start.p0(i64 4, ptr %3) #15
  %10 = getelementptr inbounds nuw %"class.zmq::thread_t", ptr %5, i32 0, i32 4
  %11 = load i64, ptr %10, align 8, !tbaa !32
  %12 = call i32 @pthread_join(i64 noundef %11, ptr noundef null)
  store i32 %12, ptr %3, align 4, !tbaa !29
  br label %13

13:                                               ; preds = %9
  %14 = load i32, ptr %3, align 4, !tbaa !29
  %15 = sext i32 %14 to i64
  %16 = call i64 @llvm.expect.i64(i64 %15, i64 0)
  %17 = icmp ne i64 %16, 0
  br i1 %17, label %18, label %27

18:                                               ; preds = %13
  call void @llvm.lifetime.start.p0(i64 8, ptr %4) #15
  %19 = load i32, ptr %3, align 4, !tbaa !29
  %20 = call ptr @strerror(i32 noundef %19) #15
  store ptr %20, ptr %4, align 8, !tbaa !25
  %21 = load ptr, ptr @stderr, align 8, !tbaa !30
  %22 = load ptr, ptr %4, align 8, !tbaa !25
  %23 = call i32 (ptr, ptr, ...) @fprintf(ptr noundef %21, ptr noundef @.str, ptr noundef %22, ptr noundef @.str.1, i32 noundef 249) #15
  %24 = load ptr, ptr @stderr, align 8, !tbaa !30
  %25 = call i32 @fflush(ptr noundef %24)
  %26 = load ptr, ptr %4, align 8, !tbaa !25
  call void @_ZN3zmq9zmq_abortEPKc(ptr noundef %26)
  call void @llvm.lifetime.end.p0(i64 8, ptr %4) #15
  br label %27

27:                                               ; preds = %18, %13
  br label %28

28:                                               ; preds = %27
  br label %29

29:                                               ; preds = %28
  call void @llvm.lifetime.end.p0(i64 4, ptr %3) #15
  br label %30

30:                                               ; preds = %29, %1
  ret void
}