; Function Attrs: mustprogress uwtable
define void @_ZN3zmq8thread_t4stopEv(ptr noundef nonnull readonly align 8 captures(none) dereferenceable(104) %0) local_unnamed_addr #1 align 2 {
  %2 = getelementptr inbounds nuw i8, ptr %0, i64 32
  %3 = load i8, ptr %2, align 8, !tbaa !3, !range !20, !noundef !21
  %4 = trunc nuw i8 %3 to i1
  br i1 %4, label %5, label %15

5:                                                ; preds = %1
  %6 = getelementptr inbounds nuw i8, ptr %0, i64 40
  %7 = load i64, ptr %6, align 8, !tbaa !29
  %8 = tail call i32 @pthread_join(i64 noundef %7, ptr noundef null)
  %.not = icmp eq i32 %8, 0
  br i1 %.not, label %15, label %9, !prof !24

9:                                                ; preds = %5
  %10 = tail call ptr @strerror(i32 noundef %8) #16
  %11 = load ptr, ptr @stderr, align 8, !tbaa !25
  %12 = tail call i32 (ptr, ptr, ...) @fprintf(ptr noundef %11, ptr noundef nonnull @.str, ptr noundef %10, ptr noundef nonnull @.str.1, i32 noundef 249) #17
  %13 = load ptr, ptr @stderr, align 8, !tbaa !25
  %14 = tail call i32 @fflush(ptr noundef %13)
  tail call void @_ZN3zmq9zmq_abortEPKc(ptr noundef %10)
  br label %15

15:                                               ; preds = %5, %9, %1
  ret void
}